target datalayout = "e-m:e-p270:32:32-p271:32:32-p272:64:64-i64:64-i128:128-f80:128-n8:16:32:64-S128"
target triple = "x86_64-unknown-linux-gnu"

%"class.OpenColorIO_v2_4dev::DynamicProperty" = type { ptr }
%"class.OpenColorIO_v2_4dev::DynamicPropertyImpl.base" = type <{ %"class.OpenColorIO_v2_4dev::DynamicProperty", i32, i8 }>
%"class.OpenColorIO_v2_4dev::DynamicPropertyGradingPrimaryImpl" = type { %"class.OpenColorIO_v2_4dev::DynamicPropertyImpl.base", %"class.OpenColorIO_v2_4dev::DynamicPropertyGradingPrimary", i32, i32, %"struct.OpenColorIO_v2_4dev::GradingPrimary", %"struct.OpenColorIO_v2_4dev::GradingPrimaryPreRender" }
%"class.OpenColorIO_v2_4dev::DynamicPropertyGradingPrimary" = type { ptr }
%"struct.OpenColorIO_v2_4dev::GradingPrimary" = type { %"struct.OpenColorIO_v2_4dev::GradingRGBM", %"struct.OpenColorIO_v2_4dev::GradingRGBM", %"struct.OpenColorIO_v2_4dev::GradingRGBM", %"struct.OpenColorIO_v2_4dev::GradingRGBM", %"struct.OpenColorIO_v2_4dev::GradingRGBM", %"struct.OpenColorIO_v2_4dev::GradingRGBM", %"struct.OpenColorIO_v2_4dev::GradingRGBM", double, double, double, double, double, double }
%"struct.OpenColorIO_v2_4dev::GradingRGBM" = type { double, double, double, double }
%"struct.OpenColorIO_v2_4dev::GradingPrimaryPreRender" = type <{ %"struct.std::array", %"struct.std::array", %"struct.std::array", %"struct.std::array", %"struct.std::array", %"struct.std::array", double, i8, i8, [6 x i8] }>
%"struct.std::array" = type { [3 x float] }

; Function Attrs: mustprogress nounwind uwtable
define linkonce_odr hidden void @_ZN19OpenColorIO_v2_4dev11GradingRGBMC2Edddd(ptr noundef nonnull align 8 dereferenceable(32) %this, double noundef %red, double noundef %green, double noundef %blue, double noundef %master) unnamed_addr #1 comdat align 2 {
entry:
  %this.addr = alloca ptr, align 8
  %red.addr = alloca double, align 8
  %green.addr = alloca double, align 8
  %blue.addr = alloca double, align 8
  %master.addr = alloca double, align 8
  store ptr %this, ptr %this.addr, align 8
  store double %red, ptr %red.addr, align 8
  store double %green, ptr %green.addr, align 8
  store double %blue, ptr %blue.addr, align 8
  store double %master, ptr %master.addr, align 8
  %this1 = load ptr, ptr %this.addr, align 8
  %m_red = getelementptr inbounds %"struct.OpenColorIO_v2_4dev::GradingRGBM", ptr %this1, i32 0, i32 0
  %0 = load double, ptr %red.addr, align 8
  store double %0, ptr %m_red, align 8
  %m_green = getelementptr inbounds %"struct.OpenColorIO_v2_4dev::GradingRGBM", ptr %this1, i32 0, i32 1
  %1 = load double, ptr %green.addr, align 8
  store double %1, ptr %m_green, align 8
  %m_blue = getelementptr inbounds %"struct.OpenColorIO_v2_4dev::GradingRGBM", ptr %this1, i32 0, i32 2
  %2 = load double, ptr %blue.addr, align 8
  store double %2, ptr %m_blue, align 8
  %m_master = getelementptr inbounds %"struct.OpenColorIO_v2_4dev::GradingRGBM", ptr %this1, i32 0, i32 3
  %3 = load double, ptr %master.addr, align 8
  store double %3, ptr %m_master, align 8
  ret void
}

; Function Attrs: mustprogress uwtable
define linkonce_odr hidden void @_ZN19OpenColorIO_v2_4dev14GradingPrimaryC2ENS_12GradingStyleE(ptr noundef nonnull align 8 dereferenceable(272) %this, i32 noundef %style) unnamed_addr #0 comdat align 2 {
entry:
  %this.addr = alloca ptr, align 8
  %style.addr = alloca i32, align 4
  store ptr %this, ptr %this.addr, align 8
  store i32 %style, ptr %style.addr, align 4
  %this1 = load ptr, ptr %this.addr, align 8
  %m_brightness = getelementptr inbounds %"struct.OpenColorIO_v2_4dev::GradingPrimary", ptr %this1, i32 0, i32 0
  call void @_ZN19OpenColorIO_v2_4dev11GradingRGBMC2Edddd(ptr noundef nonnull align 8 dereferenceable(32) %m_brightness, double noundef 0.000000e+00, double noundef 0.000000e+00, double noundef 0.000000e+00, double noundef 0.000000e+00)
  %m_contrast = getelementptr inbounds %"struct.OpenColorIO_v2_4dev::GradingPrimary", ptr %this1, i32 0, i32 1
  call void @_ZN19OpenColorIO_v2_4dev11GradingRGBMC2Edddd(ptr noundef nonnull align 8 dereferenceable(32) %m_contrast, double noundef 1.000000e+00, double noundef 1.000000e+00, double noundef 1.000000e+00, double noundef 1.000000e+00)
  %m_gamma = getelementptr inbounds %"struct.OpenColorIO_v2_4dev::GradingPrimary", ptr %this1, i32 0, i32 2
  call void @_ZN19OpenColorIO_v2_4dev11GradingRGBMC2Edddd(ptr noundef nonnull align 8 dereferenceable(32) %m_gamma, double noundef 1.000000e+00, double noundef 1.000000e+00, double noundef 1.000000e+00, double noundef 1.000000e+00)
  %m_offset = getelementptr inbounds %"struct.OpenColorIO_v2_4dev::GradingPrimary", ptr %this1, i32 0, i32 3
  call void @_ZN19OpenColorIO_v2_4dev11GradingRGBMC2Edddd(ptr noundef nonnull align 8 dereferenceable(32) %m_offset, double noundef 0.000000e+00, double noundef 0.000000e+00, double noundef 0.000000e+00, double noundef 0.000000e+00)
  %m_exposure = getelementptr inbounds %"struct.OpenColorIO_v2_4dev::GradingPrimary", ptr %this1, i32 0, i32 4
  call void @_ZN19OpenColorIO_v2_4dev11GradingRGBMC2Edddd(ptr noundef nonnull align 8 dereferenceable(32) %m_exposure, double noundef 0.000000e+00, double noundef 0.000000e+00, double noundef 0.000000e+00, double noundef 0.000000e+00)
  %m_lift = getelementptr inbounds %"struct.OpenColorIO_v2_4dev::GradingPrimary", ptr %this1, i32 0, i32 5
  call void @_ZN19OpenColorIO_v2_4dev11GradingRGBMC2Edddd(ptr noundef nonnull align 8 dereferenceable(32) %m_lift, double noundef 0.000000e+00, double noundef 0.000000e+00, double noundef 0.000000e+00, double noundef 0.000000e+00)
  %m_gain = getelementptr inbounds %"struct.OpenColorIO_v2_4dev::GradingPrimary", ptr %this1, i32 0, i32 6
  call void @_ZN19OpenColorIO_v2_4dev11GradingRGBMC2Edddd(ptr noundef nonnull align 8 dereferenceable(32) %m_gain, double noundef 1.000000e+00, double noundef 1.000000e+00, double noundef 1.000000e+00, double noundef 1.000000e+00)
  %m_saturation = getelementptr inbounds %"struct.OpenColorIO_v2_4dev::GradingPrimary", ptr %this1, i32 0, i32 7
  store double 1.000000e+00, ptr %m_saturation, align 8
  %m_pivot = getelementptr inbounds %"struct.OpenColorIO_v2_4dev::GradingPrimary", ptr %this1, i32 0, i32 8
  %0 = load i32, ptr %style.addr, align 4
  %cmp = icmp eq i32 %0, 0
  %cond = select i1 %cmp, double -2.000000e-01, double 1.800000e-01
  store double %cond, ptr %m_pivot, align 8
  %m_pivotBlack = getelementptr inbounds %"struct.OpenColorIO_v2_4dev::GradingPrimary", ptr %this1, i32 0, i32 9
  store double 0.000000e+00, ptr %m_pivotBlack, align 8
  %m_pivotWhite = getelementptr inbounds %"struct.OpenColorIO_v2_4dev::GradingPrimary", ptr %this1, i32 0, i32 10
  store double 1.000000e+00, ptr %m_pivotWhite, align 8
  %m_clampBlack = getelementptr inbounds %"struct.OpenColorIO_v2_4dev::GradingPrimary", ptr %this1, i32 0, i32 11
  %call = call noundef double @_ZN19OpenColorIO_v2_4dev14GradingPrimary12NoClampBlackEv()
  store double %call, ptr %m_clampBlack, align 8
  %m_clampWhite = getelementptr inbounds %"struct.OpenColorIO_v2_4dev::GradingPrimary", ptr %this1, i32 0, i32 12
  %call2 = call noundef double @_ZN19OpenColorIO_v2_4dev14GradingPrimary12NoClampWhiteEv()
  store double %call2, ptr %m_clampWhite, align 8
  ret void
}

; Function Attrs: mustprogress uwtable
define hidden void @_ZN19OpenColorIO_v2_4dev33DynamicPropertyGradingPrimaryImpl8setStyleENS_12GradingStyleE(ptr noundef nonnull align 8 dereferenceable(392) %this, i32 noundef %style) #0 align 2 {
entry:
  %this.addr = alloca ptr, align 8
  %style.addr = alloca i32, align 4
  %ref.tmp = alloca %"struct.OpenColorIO_v2_4dev::GradingPrimary", align 8
  store ptr %this, ptr %this.addr, align 8
  store i32 %style, ptr %style.addr, align 4
  %this1 = load ptr, ptr %this.addr, align 8
  %0 = load i32, ptr %style.addr, align 4
  %m_style = getelementptr inbounds %"class.OpenColorIO_v2_4dev::DynamicPropertyGradingPrimaryImpl", ptr %this1, i32 0, i32 2
  store i32 %0, ptr %m_style, align 8
  %m_style2 = getelementptr inbounds %"class.OpenColorIO_v2_4dev::DynamicPropertyGradingPrimaryImpl", ptr %this1, i32 0, i32 2
  %1 = load i32, ptr %m_style2, align 8
  call void @_ZN19OpenColorIO_v2_4dev14GradingPrimaryC2ENS_12GradingStyleE(ptr noundef nonnull align 8 dereferenceable(272) %ref.tmp, i32 noundef %1)
  %m_value = getelementptr inbounds %"class.OpenColorIO_v2_4dev::DynamicPropertyGradingPrimaryImpl", ptr %this1, i32 0, i32 4
  call void @llvm.memcpy.p0.p0.i64(ptr align 8 %m_value, ptr align 8 %ref.tmp, i64 272, i1 false)
  %m_preRenderValues = getelementptr inbounds %"class.OpenColorIO_v2_4dev::DynamicPropertyGradingPrimaryImpl", ptr %this1, i32 0, i32 5
  %m_style3 = getelementptr inbounds %"class.OpenColorIO_v2_4dev::DynamicPropertyGradingPrimaryImpl", ptr %this1, i32 0, i32 2
  %2 = load i32, ptr %m_style3, align 8
  %m_direction = getelementptr inbounds %"class.OpenColorIO_v2_4dev::DynamicPropertyGradingPrimaryImpl", ptr %this1, i32 0, i32 3
  %3 = load i32, ptr %m_direction, align 4
  %m_value4 = getelementptr inbounds %"class.OpenColorIO_v2_4dev::DynamicPropertyGradingPrimaryImpl", ptr %this1, i32 0, i32 4
  call void @_ZN19OpenColorIO_v2_4dev23GradingPrimaryPreRender6updateENS_12GradingStyleENS_18TransformDirectionERKNS_14GradingPrimaryE(ptr noundef nonnull align 8 dereferenceable(82) %m_preRenderValues, i32 noundef %2, i32 noundef %3, ptr noundef nonnull align 8 dereferenceable(272) %m_value4) #13
  ret void
}