; Function Attrs: mustprogress uwtable
define hidden void @_ZN19OpenColorIO_v2_4dev33DynamicPropertyGradingPrimaryImpl8setStyleENS_12GradingStyleE(ptr noundef nonnull align 8 dereferenceable(392) %this, i32 noundef %style) local_unnamed_addr #0 align 2 {
entry:
  %m_style = getelementptr inbounds i8, ptr %this, i64 24
  store i32 %style, ptr %m_style, align 8
  %cmp.i = icmp eq i32 %style, 0
  %cond.i = select i1 %cmp.i, double -2.000000e-01, double 1.800000e-01
  %call.i = tail call noundef double @_ZN19OpenColorIO_v2_4dev14GradingPrimary12NoClampBlackEv()
  %call2.i = tail call noundef double @_ZN19OpenColorIO_v2_4dev14GradingPrimary12NoClampWhiteEv()
  %m_value = getelementptr inbounds i8, ptr %this, i64 32
  tail call void @llvm.memset.p0.i64(ptr noundef nonnull align 8 dereferenceable(32) %m_value, i8 0, i64 32, i1 false)
  %ref.tmp.sroa.2.0.m_value.sroa_idx = getelementptr inbounds i8, ptr %this, i64 64
  store <2 x double> <double 1.000000e+00, double 1.000000e+00>, ptr %ref.tmp.sroa.2.0.m_value.sroa_idx, align 8
  %ref.tmp.sroa.4.0.m_value.sroa_idx = getelementptr inbounds i8, ptr %this, i64 80
  store <2 x double> <double 1.000000e+00, double 1.000000e+00>, ptr %ref.tmp.sroa.4.0.m_value.sroa_idx, align 8
  %ref.tmp.sroa.6.0.m_value.sroa_idx = getelementptr inbounds i8, ptr %this, i64 96
  store <2 x double> <double 1.000000e+00, double 1.000000e+00>, ptr %ref.tmp.sroa.6.0.m_value.sroa_idx, align 8
  %ref.tmp.sroa.8.0.m_value.sroa_idx = getelementptr inbounds i8, ptr %this, i64 112
  store <2 x double> <double 1.000000e+00, double 1.000000e+00>, ptr %ref.tmp.sroa.8.0.m_value.sroa_idx, align 8
  %ref.tmp.sroa.10.0.m_value.sroa_idx = getelementptr inbounds i8, ptr %this, i64 128
  tail call void @llvm.memset.p0.i64(ptr noundef nonnull align 8 dereferenceable(96) %ref.tmp.sroa.10.0.m_value.sroa_idx, i8 0, i64 96, i1 false)
  %ref.tmp.sroa.11.0.m_value.sroa_idx = getelementptr inbounds i8, ptr %this, i64 224
  store <2 x double> <double 1.000000e+00, double 1.000000e+00>, ptr %ref.tmp.sroa.11.0.m_value.sroa_idx, align 8
  %ref.tmp.sroa.13.0.m_value.sroa_idx = getelementptr inbounds i8, ptr %this, i64 240
  store <2 x double> <double 1.000000e+00, double 1.000000e+00>, ptr %ref.tmp.sroa.13.0.m_value.sroa_idx, align 8
  %ref.tmp.sroa.15.0.m_value.sroa_idx = getelementptr inbounds i8, ptr %this, i64 256
  store double 1.000000e+00, ptr %ref.tmp.sroa.15.0.m_value.sroa_idx, align 8
  %ref.tmp.sroa.16.0.m_value.sroa_idx = getelementptr inbounds i8, ptr %this, i64 264
  store double %cond.i, ptr %ref.tmp.sroa.16.0.m_value.sroa_idx, align 8
  %ref.tmp.sroa.17.0.m_value.sroa_idx = getelementptr inbounds i8, ptr %this, i64 272
  store <2 x double> <double 0.000000e+00, double 1.000000e+00>, ptr %ref.tmp.sroa.17.0.m_value.sroa_idx, align 8
  %ref.tmp.sroa.19.0.m_value.sroa_idx = getelementptr inbounds i8, ptr %this, i64 288
  store double %call.i, ptr %ref.tmp.sroa.19.0.m_value.sroa_idx, align 8
  %ref.tmp.sroa.20.0.m_value.sroa_idx = getelementptr inbounds i8, ptr %this, i64 296
  store double %call2.i, ptr %ref.tmp.sroa.20.0.m_value.sroa_idx, align 8
  %m_preRenderValues = getelementptr inbounds i8, ptr %this, i64 304
  %0 = load i32, ptr %m_style, align 8
  %m_direction = getelementptr inbounds i8, ptr %this, i64 28
  %1 = load i32, ptr %m_direction, align 4
  tail call void @_ZN19OpenColorIO_v2_4dev23GradingPrimaryPreRender6updateENS_12GradingStyleENS_18TransformDirectionERKNS_14GradingPrimaryE(ptr noundef nonnull align 8 dereferenceable(82) %m_preRenderValues, i32 noundef %0, i32 noundef %1, ptr noundef nonnull align 8 dereferenceable(272) %m_value) #20
  ret void
}